; Function Attrs: nounwind uwtable
define noundef zeroext i1 @html_normalise_mem(ptr noundef %0, ptr noundef %1, i64 noundef %2, ptr noundef %3, ptr noundef %4, ptr noundef %5) local_unnamed_addr #0 {
  %7 = alloca %struct.m_area_tag, align 8
  call void @llvm.lifetime.start.p0(i64 32, ptr nonnull %7) #17
  store ptr %1, ptr %7, align 8, !tbaa !25
  %8 = getelementptr inbounds nuw i8, ptr %7, i64 8
  store i64 %2, ptr %8, align 8, !tbaa !28
  %9 = getelementptr inbounds nuw i8, ptr %7, i64 16
  call void @llvm.memset.p0.i64(ptr noundef nonnull align 8 dereferenceable(16) %9, i8 0, i64 16, i1 false)
  %10 = call fastcc noundef zeroext i1 @cli_html_normalise(ptr noundef %0, ptr noundef %7, ptr noundef %3, ptr noundef %4, ptr noundef %5, ptr noundef null)
  call void @llvm.lifetime.end.p0(i64 32, ptr nonnull %7) #17
  ret i1 %10
}